; Function Attrs: nounwind uwtable
define dso_local i32 @select_g_select_jobinfo_set(ptr noundef readonly captures(address_is_null) %0, i32 noundef %1, ptr noundef %2) local_unnamed_addr #0 {
  %.not = icmp eq ptr %0, null
  br i1 %.not, label %7, label %4

4:                                                ; preds = %3
  %5 = load ptr, ptr %0, align 8
  %6 = getelementptr inbounds nuw i8, ptr %0, i64 8
  br label %7

7:                                                ; preds = %3, %4
  %.06 = phi ptr [ %5, %4 ], [ null, %3 ]
  %.0.in = phi ptr [ %6, %4 ], [ @select_context_default, %3 ]
  %.0 = load i32, ptr %.0.in, align 4
  %8 = load ptr, ptr @ops, align 8
  %9 = zext i32 %.0 to i64
  %10 = getelementptr inbounds nuw %struct.slurm_select_ops_t, ptr %8, i64 %9, i32 25
  %11 = load ptr, ptr %10, align 8
  %12 = tail call i32 %11(ptr noundef %.06, i32 noundef %1, ptr noundef %2) #15
  ret i32 %12
}